target datalayout = "e-m:e-p270:32:32-p271:32:32-p272:64:64-i64:64-i128:128-f80:128-n8:16:32:64-S128"
target triple = "x86_64-pc-linux-gnu"

; Function Attrs: mustprogress uwtable
define void @_ZN4LIEF5MachO4Hash5visitERKNS0_11BindingInfoE(ptr noundef nonnull align 8 dereferenceable(64) %0, ptr noundef nonnull align 8 dereferenceable(64) %1) unnamed_addr #3 align 2 {
  %3 = alloca ptr, align 8
  %4 = alloca ptr, align 8
  store ptr %0, ptr %3, align 8
  store ptr %1, ptr %4, align 8
  %5 = load ptr, ptr %3, align 8
  %6 = load ptr, ptr %4, align 8
  %7 = call noundef i32 @_ZNK4LIEF5MachO11BindingInfo15library_ordinalEv(ptr noundef nonnull align 8 dereferenceable(64) %6)
  %8 = sext i32 %7 to i64
  %9 = load ptr, ptr %5, align 8
  %10 = getelementptr inbounds ptr, ptr %9, i64 166
  %11 = load ptr, ptr %10, align 8
  %12 = call noundef nonnull align 8 dereferenceable(64) ptr %11(ptr noundef nonnull align 8 dereferenceable(64) %5, i64 noundef %8)
  %13 = load ptr, ptr %4, align 8
  %14 = call noundef i64 @_ZNK4LIEF5MachO11BindingInfo6addendEv(ptr noundef nonnull align 8 dereferenceable(64) %13)
  %15 = load ptr, ptr %5, align 8
  %16 = getelementptr inbounds ptr, ptr %15, i64 166
  %17 = load ptr, ptr %16, align 8
  %18 = call noundef nonnull align 8 dereferenceable(64) ptr %17(ptr noundef nonnull align 8 dereferenceable(64) %5, i64 noundef %14)
  %19 = load ptr, ptr %4, align 8
  %20 = call noundef zeroext i1 @_ZNK4LIEF5MachO11BindingInfo14is_weak_importEv(ptr noundef nonnull align 8 dereferenceable(64) %19)
  %21 = zext i1 %20 to i64
  %22 = load ptr, ptr %5, align 8
  %23 = getelementptr inbounds ptr, ptr %22, i64 166
  %24 = load ptr, ptr %23, align 8
  %25 = call noundef nonnull align 8 dereferenceable(64) ptr %24(ptr noundef nonnull align 8 dereferenceable(64) %5, i64 noundef %21)
  %26 = load ptr, ptr %4, align 8
  %27 = load ptr, ptr %26, align 8
  %28 = getelementptr inbounds ptr, ptr %27, i64 5
  %29 = load ptr, ptr %28, align 8
  %30 = call noundef i64 %29(ptr noundef nonnull align 8 dereferenceable(64) %26)
  %31 = load ptr, ptr %5, align 8
  %32 = getelementptr inbounds ptr, ptr %31, i64 166
  %33 = load ptr, ptr %32, align 8
  %34 = call noundef nonnull align 8 dereferenceable(64) ptr %33(ptr noundef nonnull align 8 dereferenceable(64) %5, i64 noundef %30)
  %35 = load ptr, ptr %4, align 8
  %36 = call noundef zeroext i1 @_ZNK4LIEF5MachO11BindingInfo10has_symbolEv(ptr noundef nonnull align 8 dereferenceable(64) %35)
  br i1 %36, label %37, label %48

37:                                               ; preds = %2
  %38 = load ptr, ptr %4, align 8
  %39 = call noundef ptr @_ZNK4LIEF5MachO11BindingInfo6symbolEv(ptr noundef nonnull align 8 dereferenceable(64) %38)
  %40 = load ptr, ptr %39, align 8
  %41 = getelementptr inbounds ptr, ptr %40, i64 5
  %42 = load ptr, ptr %41, align 8
  %43 = call noundef nonnull align 8 dereferenceable(32) ptr %42(ptr noundef nonnull align 8 dereferenceable(56) %39)
  %44 = load ptr, ptr %5, align 8
  %45 = getelementptr inbounds ptr, ptr %44, i64 167
  %46 = load ptr, ptr %45, align 8
  %47 = call noundef nonnull align 8 dereferenceable(64) ptr %46(ptr noundef nonnull align 8 dereferenceable(64) %5, ptr noundef nonnull align 8 dereferenceable(32) %43)
  br label %48

48:                                               ; preds = %37, %2
  %49 = load ptr, ptr %4, align 8
  %50 = call noundef zeroext i1 @_ZNK4LIEF5MachO11BindingInfo11has_libraryEv(ptr noundef nonnull align 8 dereferenceable(64) %49)
  br i1 %50, label %51, label %58

51:                                               ; preds = %48
  %52 = load ptr, ptr %4, align 8
  %53 = call noundef ptr @_ZNK4LIEF5MachO11BindingInfo7libraryEv(ptr noundef nonnull align 8 dereferenceable(64) %52)
  %54 = load ptr, ptr %5, align 8
  %55 = getelementptr inbounds ptr, ptr %54, i64 165
  %56 = load ptr, ptr %55, align 8
  %57 = call noundef nonnull align 8 dereferenceable(64) ptr %56(ptr noundef nonnull align 8 dereferenceable(64) %5, ptr noundef nonnull align 8 dereferenceable(8) %53)
  br label %58

58:                                               ; preds = %51, %48
  ret void
}