; Function Attrs: mustprogress uwtable
define void @_ZN4LIEF5MachO4Hash5visitERKNS0_11BindingInfoE(ptr noundef nonnull align 8 dereferenceable(64) %0, ptr noundef nonnull align 8 dereferenceable(64) %1) unnamed_addr #3 align 2 {
  %3 = tail call noundef i32 @_ZNK4LIEF5MachO11BindingInfo15library_ordinalEv(ptr noundef nonnull align 8 dereferenceable(64) %1)
  %4 = sext i32 %3 to i64
  %5 = load ptr, ptr %0, align 8
  %6 = getelementptr inbounds i8, ptr %5, i64 1328
  %7 = load ptr, ptr %6, align 8
  %8 = tail call noundef nonnull align 8 dereferenceable(64) ptr %7(ptr noundef nonnull align 8 dereferenceable(64) %0, i64 noundef %4)
  %9 = tail call noundef i64 @_ZNK4LIEF5MachO11BindingInfo6addendEv(ptr noundef nonnull align 8 dereferenceable(64) %1)
  %10 = load ptr, ptr %0, align 8
  %11 = getelementptr inbounds i8, ptr %10, i64 1328
  %12 = load ptr, ptr %11, align 8
  %13 = tail call noundef nonnull align 8 dereferenceable(64) ptr %12(ptr noundef nonnull align 8 dereferenceable(64) %0, i64 noundef %9)
  %14 = tail call noundef zeroext i1 @_ZNK4LIEF5MachO11BindingInfo14is_weak_importEv(ptr noundef nonnull align 8 dereferenceable(64) %1)
  %15 = zext i1 %14 to i64
  %16 = load ptr, ptr %0, align 8
  %17 = getelementptr inbounds i8, ptr %16, i64 1328
  %18 = load ptr, ptr %17, align 8
  %19 = tail call noundef nonnull align 8 dereferenceable(64) ptr %18(ptr noundef nonnull align 8 dereferenceable(64) %0, i64 noundef %15)
  %20 = load ptr, ptr %1, align 8
  %21 = getelementptr inbounds i8, ptr %20, i64 40
  %22 = load ptr, ptr %21, align 8
  %23 = tail call noundef i64 %22(ptr noundef nonnull align 8 dereferenceable(64) %1)
  %24 = load ptr, ptr %0, align 8
  %25 = getelementptr inbounds i8, ptr %24, i64 1328
  %26 = load ptr, ptr %25, align 8
  %27 = tail call noundef nonnull align 8 dereferenceable(64) ptr %26(ptr noundef nonnull align 8 dereferenceable(64) %0, i64 noundef %23)
  %28 = tail call noundef zeroext i1 @_ZNK4LIEF5MachO11BindingInfo10has_symbolEv(ptr noundef nonnull align 8 dereferenceable(64) %1)
  br i1 %28, label %29, label %39

29:                                               ; preds = %2
  %30 = tail call noundef ptr @_ZNK4LIEF5MachO11BindingInfo6symbolEv(ptr noundef nonnull align 8 dereferenceable(64) %1)
  %31 = load ptr, ptr %30, align 8
  %32 = getelementptr inbounds i8, ptr %31, i64 40
  %33 = load ptr, ptr %32, align 8
  %34 = tail call noundef nonnull align 8 dereferenceable(32) ptr %33(ptr noundef nonnull align 8 dereferenceable(56) %30)
  %35 = load ptr, ptr %0, align 8
  %36 = getelementptr inbounds i8, ptr %35, i64 1336
  %37 = load ptr, ptr %36, align 8
  %38 = tail call noundef nonnull align 8 dereferenceable(64) ptr %37(ptr noundef nonnull align 8 dereferenceable(64) %0, ptr noundef nonnull align 8 dereferenceable(32) %34)
  br label %39

39:                                               ; preds = %29, %2
  %40 = tail call noundef zeroext i1 @_ZNK4LIEF5MachO11BindingInfo11has_libraryEv(ptr noundef nonnull align 8 dereferenceable(64) %1)
  br i1 %40, label %41, label %47

41:                                               ; preds = %39
  %42 = tail call noundef ptr @_ZNK4LIEF5MachO11BindingInfo7libraryEv(ptr noundef nonnull align 8 dereferenceable(64) %1)
  %43 = load ptr, ptr %0, align 8
  %44 = getelementptr inbounds i8, ptr %43, i64 1320
  %45 = load ptr, ptr %44, align 8
  %46 = tail call noundef nonnull align 8 dereferenceable(64) ptr %45(ptr noundef nonnull align 8 dereferenceable(64) %0, ptr noundef nonnull align 8 dereferenceable(8) %42)
  br label %47

47:                                               ; preds = %41, %39
  ret void
}